target datalayout = "e-m:e-p270:32:32-p271:32:32-p272:64:64-i64:64-i128:128-f80:128-n8:16:32:64-S128"
target triple = "x86_64-pc-linux-gnu"

%"struct.icu_77::(anonymous namespace)::DayPeriodRulesData" = type <{ ptr, ptr, i32, [4 x i8] }>
%"class.icu_77::internal::LocalOpenPointer" = type { %"class.icu_77::LocalPointerBase" }
%"class.icu_77::LocalPointerBase" = type { ptr }
%"struct.icu_77::DayPeriodRulesCountSink" = type { %"class.icu_77::ResourceSink" }
%"class.icu_77::ResourceSink" = type { %"class.icu_77::UObject" }
%"class.icu_77::UObject" = type { ptr }
%"struct.icu_77::DayPeriodRulesDataSink" = type { %"class.icu_77::ResourceSink", [25 x i32], i32, i32, i32 }

@_ZN6icu_7712_GLOBAL__N_14dataE = internal global ptr null, align 8
@.str = private unnamed_addr constant [11 x i8] c"dayPeriods\00", align 1
@.str.1 = private unnamed_addr constant [6 x i8] c"rules\00", align 1
@.str.2 = private unnamed_addr constant [1 x i8] zeroinitializer, align 1
@_ZTVN6icu_7712ResourceSinkE = available_externally unnamed_addr constant { [6 x ptr] } { [6 x ptr] [ptr null, ptr @_ZTIN6icu_7712ResourceSinkE, ptr @_ZN6icu_7712ResourceSinkD1Ev, ptr @_ZN6icu_7712ResourceSinkD0Ev, ptr @_ZNK6icu_777UObject17getDynamicClassIDEv, ptr @__cxa_pure_virtual] }, align 8
@_ZTVN6icu_777UObjectE = available_externally unnamed_addr constant { [5 x ptr] } { [5 x ptr] [ptr null, ptr @_ZTIN6icu_777UObjectE, ptr @_ZN6icu_777UObjectD1Ev, ptr @_ZN6icu_777UObjectD0Ev, ptr @_ZNK6icu_777UObject17getDynamicClassIDEv] }, align 8
@_ZN6icu_7722DayPeriodRulesDataSinkD1Ev = unnamed_addr alias void (ptr), ptr @_ZN6icu_7722DayPeriodRulesDataSinkD2Ev
@_ZN6icu_7723DayPeriodRulesCountSinkD1Ev = unnamed_addr alias void (ptr), ptr @_ZN6icu_7723DayPeriodRulesCountSinkD2Ev

; Function Attrs: inlinehint mustprogress nounwind uwtable
define linkonce_odr void @_ZN6icu_777UObjectC2Ev(ptr noundef nonnull align 8 dereferenceable(8) %0) unnamed_addr #2 comdat align 2 {
  %2 = alloca ptr, align 8
  store ptr %0, ptr %2, align 8, !tbaa !83
  %3 = load ptr, ptr %2, align 8
  store ptr getelementptr inbounds inrange(-16, 24) ({ [5 x ptr] }, ptr @_ZTVN6icu_777UObjectE, i32 0, i32 0, i32 2), ptr %3, align 8, !tbaa !39
  ret void
}

; Function Attrs: mustprogress nounwind uwtable
define linkonce_odr void @_ZN6icu_7712ResourceSinkC2Ev(ptr noundef nonnull align 8 dereferenceable(8) %0) unnamed_addr #0 comdat align 2 {
  %2 = alloca ptr, align 8
  store ptr %0, ptr %2, align 8, !tbaa !81
  %3 = load ptr, ptr %2, align 8
  call void @_ZN6icu_777UObjectC2Ev(ptr noundef nonnull align 8 dereferenceable(8) %3) #13
  store ptr getelementptr inbounds inrange(-16, 32) ({ [6 x ptr] }, ptr @_ZTVN6icu_7712ResourceSinkE, i32 0, i32 0, i32 2), ptr %3, align 8, !tbaa !39
  ret void
}

; Function Attrs: mustprogress nounwind uwtable
define linkonce_odr void @_ZN6icu_7716LocalPointerBaseI15UResourceBundleEC2EPS1_(ptr noundef nonnull align 8 dereferenceable(8) %0, ptr noundef %1) unnamed_addr #0 comdat align 2 {
  %3 = alloca ptr, align 8
  %4 = alloca ptr, align 8
  store ptr %0, ptr %3, align 8, !tbaa !41
  store ptr %1, ptr %4, align 8, !tbaa !37
  %5 = load ptr, ptr %3, align 8
  %6 = getelementptr inbounds nuw %"class.icu_77::LocalPointerBase", ptr %5, i32 0, i32 0
  %7 = load ptr, ptr %4, align 8, !tbaa !37
  store ptr %7, ptr %6, align 8, !tbaa !43
  ret void
}

; Function Attrs: mustprogress nounwind uwtable
define linkonce_odr void @_ZN6icu_7722DayPeriodRulesDataSinkC2Ev(ptr noundef nonnull align 8 dereferenceable(120) %0) unnamed_addr #0 comdat align 2 {
  %2 = alloca ptr, align 8
  %3 = alloca i32, align 4
  store ptr %0, ptr %2, align 8, !tbaa !23
  %4 = load ptr, ptr %2, align 8
  call void @_ZN6icu_7712ResourceSinkC2Ev(ptr noundef nonnull align 8 dereferenceable(8) %4)
  store ptr getelementptr inbounds inrange(-16, 32) ({ [6 x ptr] }, ptr @_ZTVN6icu_7722DayPeriodRulesDataSinkE, i32 0, i32 0, i32 2), ptr %4, align 8, !tbaa !39
  call void @llvm.lifetime.start.p0(i64 4, ptr %3) #13
  store i32 0, ptr %3, align 4, !tbaa !14
  br label %5

5:                                                ; preds = %14, %1
  %6 = load i32, ptr %3, align 4, !tbaa !14
  %7 = icmp slt i32 %6, 25
  br i1 %7, label %9, label %8

8:                                                ; preds = %5
  call void @llvm.lifetime.end.p0(i64 4, ptr %3) #13
  br label %17

9:                                                ; preds = %5
  %10 = getelementptr inbounds nuw %"struct.icu_77::DayPeriodRulesDataSink", ptr %4, i32 0, i32 1
  %11 = load i32, ptr %3, align 4, !tbaa !14
  %12 = sext i32 %11 to i64
  %13 = getelementptr inbounds [25 x i32], ptr %10, i64 0, i64 %12
  store i32 0, ptr %13, align 4, !tbaa !14
  br label %14

14:                                               ; preds = %9
  %15 = load i32, ptr %3, align 4, !tbaa !14
  %16 = add nsw i32 %15, 1
  store i32 %16, ptr %3, align 4, !tbaa !14
  br label %5, !llvm.loop !45

17:                                               ; preds = %8
  ret void
}

; Function Attrs: mustprogress nounwind uwtable
define linkonce_odr noundef ptr @_ZNK6icu_7716LocalPointerBaseI15UResourceBundleE8getAliasEv(ptr noundef nonnull align 8 dereferenceable(8) %0) #0 comdat align 2 {
  %2 = alloca ptr, align 8
  store ptr %0, ptr %2, align 8, !tbaa !41
  %3 = load ptr, ptr %2, align 8
  %4 = getelementptr inbounds nuw %"class.icu_77::LocalPointerBase", ptr %3, i32 0, i32 0
  %5 = load ptr, ptr %4, align 8, !tbaa !43
  ret ptr %5
}

; Function Attrs: inlinehint mustprogress uwtable
define linkonce_odr void @_ZN6icu_7723DayPeriodRulesCountSinkC2Ev(ptr noundef nonnull align 8 dereferenceable(8) %0) unnamed_addr #3 comdat align 2 {
  %2 = alloca ptr, align 8
  store ptr %0, ptr %2, align 8, !tbaa !25
  %3 = load ptr, ptr %2, align 8
  call void @_ZN6icu_7712ResourceSinkC2Ev(ptr noundef nonnull align 8 dereferenceable(8) %3)
  store ptr getelementptr inbounds inrange(-16, 32) ({ [6 x ptr] }, ptr @_ZTVN6icu_7723DayPeriodRulesCountSinkE, i32 0, i32 0, i32 2), ptr %3, align 8, !tbaa !39
  ret void
}

; Function Attrs: mustprogress uwtable
define linkonce_odr void @_ZN6icu_778internal16LocalOpenPointerI15UResourceBundleXadL_Z13ures_close_77EEEC2EPS2_(ptr noundef nonnull align 8 dereferenceable(8) %0, ptr noundef %1) unnamed_addr #1 comdat align 2 {
  %3 = alloca ptr, align 8
  %4 = alloca ptr, align 8
  store ptr %0, ptr %3, align 8, !tbaa !35
  store ptr %1, ptr %4, align 8, !tbaa !37
  %5 = load ptr, ptr %3, align 8
  %6 = load ptr, ptr %4, align 8, !tbaa !37
  call void @_ZN6icu_7716LocalPointerBaseI15UResourceBundleEC2EPS1_(ptr noundef nonnull align 8 dereferenceable(8) %5, ptr noundef %6)
  ret void
}

; Function Attrs: mustprogress nounwind uwtable
define internal void @_ZN6icu_7712_GLOBAL__N_118DayPeriodRulesDataC2Ev(ptr noundef nonnull align 8 dereferenceable(20) %0) unnamed_addr #0 align 2 {
  %2 = alloca ptr, align 8
  store ptr %0, ptr %2, align 8, !tbaa !27
  %3 = load ptr, ptr %2, align 8
  %4 = getelementptr inbounds nuw %"struct.icu_77::(anonymous namespace)::DayPeriodRulesData", ptr %3, i32 0, i32 0
  store ptr null, ptr %4, align 8, !tbaa !33
  %5 = getelementptr inbounds nuw %"struct.icu_77::(anonymous namespace)::DayPeriodRulesData", ptr %3, i32 0, i32 1
  store ptr null, ptr %5, align 8, !tbaa !29
  %6 = getelementptr inbounds nuw %"struct.icu_77::(anonymous namespace)::DayPeriodRulesData", ptr %3, i32 0, i32 2
  store i32 0, ptr %6, align 8, !tbaa !34
  ret void
}

; Function Attrs: inlinehint mustprogress nounwind uwtable
define internal noundef signext i8 @_ZL9U_FAILURE10UErrorCode(i32 noundef %0) #2 {
  %2 = alloca i32, align 4
  store i32 %0, ptr %2, align 4, !tbaa !15
  %3 = load i32, ptr %2, align 4, !tbaa !15
  %4 = icmp sgt i32 %3, 0
  %5 = zext i1 %4 to i8
  ret i8 %5
}

; Function Attrs: mustprogress uwtable
define void @_ZN6icu_7714DayPeriodRules4loadER10UErrorCode(ptr noundef nonnull align 4 dereferenceable(4) %0) #1 align 2 personality ptr @__gxx_personality_v0 {
  %2 = alloca ptr, align 8
  %3 = alloca ptr, align 8
  %4 = alloca i1, align 1
  %5 = alloca ptr, align 8
  %6 = alloca i32, align 4
  %7 = alloca %"class.icu_77::internal::LocalOpenPointer", align 8
  %8 = alloca %"struct.icu_77::DayPeriodRulesCountSink", align 8
  %9 = alloca %"struct.icu_77::DayPeriodRulesDataSink", align 8
  store ptr %0, ptr %2, align 8, !tbaa !22
  %10 = load ptr, ptr %2, align 8, !tbaa !22
  %11 = load i32, ptr %10, align 4, !tbaa !15
  %12 = call noundef signext i8 @_ZL9U_FAILURE10UErrorCode(i32 noundef %11)
  %13 = icmp ne i8 %12, 0
  br i1 %13, label %14, label %15

14:                                               ; preds = %1
  br label %39

15:                                               ; preds = %1
  %16 = call noundef ptr @_ZN6icu_777UMemorynwEm(i64 noundef 24) #13
  %17 = icmp eq ptr %16, null
  store i1 false, ptr %4, align 1
  br i1 %17, label %20, label %18

18:                                               ; preds = %15
  store ptr %16, ptr %3, align 8
  store i1 true, ptr %4, align 1
  invoke void @_ZN6icu_7712_GLOBAL__N_118DayPeriodRulesDataC2Ev(ptr noundef nonnull align 8 dereferenceable(20) %16)
          to label %19 unwind label %40

19:                                               ; preds = %18
  br label %20

20:                                               ; preds = %19, %15
  %21 = phi ptr [ %16, %19 ], [ null, %15 ]
  store ptr %21, ptr @_ZN6icu_7712_GLOBAL__N_14dataE, align 8, !tbaa !27
  %22 = load ptr, ptr %2, align 8, !tbaa !22
  %23 = call ptr @uhash_open_77(ptr noundef @uhash_hashChars_77, ptr noundef @uhash_compareChars_77, ptr noundef null, ptr noundef %22)
  %24 = load ptr, ptr @_ZN6icu_7712_GLOBAL__N_14dataE, align 8, !tbaa !27
  %25 = getelementptr inbounds nuw %"struct.icu_77::(anonymous namespace)::DayPeriodRulesData", ptr %24, i32 0, i32 0
  store ptr %23, ptr %25, align 8, !tbaa !33
  call void @llvm.lifetime.start.p0(i64 8, ptr %7) #13
  %26 = load ptr, ptr %2, align 8, !tbaa !22
  %27 = call ptr @ures_openDirect_77(ptr noundef null, ptr noundef @.str, ptr noundef %26)
  call void @_ZN6icu_778internal16LocalOpenPointerI15UResourceBundleXadL_Z13ures_close_77EEEC2EPS2_(ptr noundef nonnull align 8 dereferenceable(8) %7, ptr noundef %27)
  call void @llvm.lifetime.start.p0(i64 8, ptr %8) #13
  invoke void @_ZN6icu_7723DayPeriodRulesCountSinkC2Ev(ptr noundef nonnull align 8 dereferenceable(8) %8)
          to label %28 unwind label %48

28:                                               ; preds = %20
  %29 = invoke noundef ptr @_ZNK6icu_7716LocalPointerBaseI15UResourceBundleE8getAliasEv(ptr noundef nonnull align 8 dereferenceable(8) %7)
          to label %30 unwind label %52

30:                                               ; preds = %28
  %31 = load ptr, ptr %2, align 8, !tbaa !22
  invoke void @ures_getAllItemsWithFallback_77(ptr noundef %29, ptr noundef @.str.1, ptr noundef nonnull align 8 dereferenceable(8) %8, ptr noundef nonnull align 4 dereferenceable(4) %31)
          to label %32 unwind label %52

32:                                               ; preds = %30
  call void @llvm.lifetime.start.p0(i64 120, ptr %9) #13
  invoke void @_ZN6icu_7722DayPeriodRulesDataSinkC2Ev(ptr noundef nonnull align 8 dereferenceable(120) %9)
          to label %33 unwind label %56

33:                                               ; preds = %32
  %34 = invoke noundef ptr @_ZNK6icu_7716LocalPointerBaseI15UResourceBundleE8getAliasEv(ptr noundef nonnull align 8 dereferenceable(8) %7)
          to label %35 unwind label %60

35:                                               ; preds = %33
  %36 = load ptr, ptr %2, align 8, !tbaa !22
  invoke void @ures_getAllItemsWithFallback_77(ptr noundef %34, ptr noundef @.str.2, ptr noundef nonnull align 8 dereferenceable(8) %9, ptr noundef nonnull align 4 dereferenceable(4) %36)
          to label %37 unwind label %60

37:                                               ; preds = %35
  invoke void @ucln_i18n_registerCleanup_77(i32 noundef 25, ptr noundef @dayPeriodRulesCleanup_77)
          to label %38 unwind label %60

38:                                               ; preds = %37
  call void @_ZN6icu_7722DayPeriodRulesDataSinkD1Ev(ptr noundef nonnull align 8 dereferenceable(120) %9) #13
  call void @llvm.lifetime.end.p0(i64 120, ptr %9) #13
  call void @_ZN6icu_7723DayPeriodRulesCountSinkD1Ev(ptr noundef nonnull align 8 dereferenceable(8) %8) #13
  call void @llvm.lifetime.end.p0(i64 8, ptr %8) #13
  call void @_ZN6icu_778internal16LocalOpenPointerI15UResourceBundleXadL_Z13ures_close_77EEED2Ev(ptr noundef nonnull align 8 dereferenceable(8) %7) #13
  call void @llvm.lifetime.end.p0(i64 8, ptr %7) #13
  br label %39

39:                                               ; preds = %38, %14
  ret void

40:                                               ; preds = %18
  %41 = landingpad { ptr, i32 }
          cleanup
  %42 = extractvalue { ptr, i32 } %41, 0
  store ptr %42, ptr %5, align 8
  %43 = extractvalue { ptr, i32 } %41, 1
  store i32 %43, ptr %6, align 4
  %44 = load i1, ptr %4, align 1
  br i1 %44, label %45, label %47

45:                                               ; preds = %40
  %46 = load ptr, ptr %3, align 8
  call void @_ZN6icu_777UMemorydlEPv(ptr noundef %46) #13
  br label %47

47:                                               ; preds = %45, %40
  br label %67

48:                                               ; preds = %20
  %49 = landingpad { ptr, i32 }
          cleanup
  %50 = extractvalue { ptr, i32 } %49, 0
  store ptr %50, ptr %5, align 8
  %51 = extractvalue { ptr, i32 } %49, 1
  store i32 %51, ptr %6, align 4
  br label %66

52:                                               ; preds = %30, %28
  %53 = landingpad { ptr, i32 }
          cleanup
  %54 = extractvalue { ptr, i32 } %53, 0
  store ptr %54, ptr %5, align 8
  %55 = extractvalue { ptr, i32 } %53, 1
  store i32 %55, ptr %6, align 4
  br label %65

56:                                               ; preds = %32
  %57 = landingpad { ptr, i32 }
          cleanup
  %58 = extractvalue { ptr, i32 } %57, 0
  store ptr %58, ptr %5, align 8
  %59 = extractvalue { ptr, i32 } %57, 1
  store i32 %59, ptr %6, align 4
  br label %64

60:                                               ; preds = %37, %35, %33
  %61 = landingpad { ptr, i32 }
          cleanup
  %62 = extractvalue { ptr, i32 } %61, 0
  store ptr %62, ptr %5, align 8
  %63 = extractvalue { ptr, i32 } %61, 1
  store i32 %63, ptr %6, align 4
  call void @_ZN6icu_7722DayPeriodRulesDataSinkD1Ev(ptr noundef nonnull align 8 dereferenceable(120) %9) #13
  br label %64

64:                                               ; preds = %60, %56
  call void @llvm.lifetime.end.p0(i64 120, ptr %9) #13
  br label %65

65:                                               ; preds = %64, %52
  call void @_ZN6icu_7723DayPeriodRulesCountSinkD1Ev(ptr noundef nonnull align 8 dereferenceable(8) %8) #13
  br label %66

66:                                               ; preds = %65, %48
  call void @llvm.lifetime.end.p0(i64 8, ptr %8) #13
  call void @_ZN6icu_778internal16LocalOpenPointerI15UResourceBundleXadL_Z13ures_close_77EEED2Ev(ptr noundef nonnull align 8 dereferenceable(8) %7) #13
  call void @llvm.lifetime.end.p0(i64 8, ptr %7) #13
  br label %67

67:                                               ; preds = %66, %47
  %68 = load ptr, ptr %5, align 8
  %69 = load i32, ptr %6, align 4
  %70 = insertvalue { ptr, i32 } poison, ptr %68, 0
  %71 = insertvalue { ptr, i32 } %70, i32 %69, 1
  resume { ptr, i32 } %71
}