; Function Attrs: mustprogress uwtable
define void @_ZN6icu_7714DayPeriodRules4loadER10UErrorCode(ptr noundef nonnull align 4 dereferenceable(4) %0) local_unnamed_addr #1 align 2 personality ptr @__gxx_personality_v0 {
  %2 = alloca %"class.icu_77::internal::LocalOpenPointer", align 8
  %3 = alloca %"struct.icu_77::DayPeriodRulesCountSink", align 8
  %4 = alloca %"struct.icu_77::DayPeriodRulesDataSink", align 8
  %5 = load i32, ptr %0, align 4, !tbaa !13
  %6 = icmp slt i32 %5, 1
  br i1 %6, label %7, label %23

7:                                                ; preds = %1
  %8 = tail call noundef ptr @_ZN6icu_777UMemorynwEm(i64 noundef 24) #21
  %9 = icmp eq ptr %8, null
  br i1 %9, label %11, label %10

10:                                               ; preds = %7
  tail call void @llvm.memset.p0.i64(ptr noundef nonnull align 8 dereferenceable(20) %8, i8 0, i64 20, i1 false)
  br label %11

11:                                               ; preds = %7, %10
  store ptr %8, ptr @_ZN6icu_7712_GLOBAL__N_14dataE, align 8, !tbaa !15
  %12 = tail call ptr @uhash_open_77(ptr noundef nonnull @uhash_hashChars_77, ptr noundef nonnull @uhash_compareChars_77, ptr noundef null, ptr noundef nonnull %0)
  %13 = load ptr, ptr @_ZN6icu_7712_GLOBAL__N_14dataE, align 8, !tbaa !15
  store ptr %12, ptr %13, align 8, !tbaa !21
  call void @llvm.lifetime.start.p0(i64 8, ptr nonnull %2) #21
  %14 = tail call ptr @ures_openDirect_77(ptr noundef null, ptr noundef nonnull @.str, ptr noundef nonnull %0)
  store ptr %14, ptr %2, align 8, !tbaa !22
  call void @llvm.lifetime.start.p0(i64 8, ptr nonnull %3) #21
  store ptr getelementptr inbounds nuw inrange(-16, 32) (i8, ptr @_ZTVN6icu_7723DayPeriodRulesCountSinkE, i64 16), ptr %3, align 8, !tbaa !25
  invoke void @ures_getAllItemsWithFallback_77(ptr noundef %14, ptr noundef nonnull @.str.1, ptr noundef nonnull align 8 dereferenceable(8) %3, ptr noundef nonnull align 4 dereferenceable(4) %0)
          to label %15 unwind label %24

15:                                               ; preds = %11
  call void @llvm.lifetime.start.p0(i64 120, ptr nonnull %4) #21
  store ptr getelementptr inbounds nuw inrange(-16, 32) (i8, ptr @_ZTVN6icu_7722DayPeriodRulesDataSinkE, i64 16), ptr %4, align 8, !tbaa !25
  %16 = getelementptr inbounds nuw i8, ptr %4, i64 8
  call void @llvm.memset.p0.i64(ptr noundef nonnull align 8 dereferenceable(100) %16, i8 0, i64 100, i1 false), !tbaa !12
  invoke void @ures_getAllItemsWithFallback_77(ptr noundef %14, ptr noundef nonnull @.str.2, ptr noundef nonnull align 8 dereferenceable(8) %4, ptr noundef nonnull align 4 dereferenceable(4) %0)
          to label %17 unwind label %26

17:                                               ; preds = %15
  invoke void @ucln_i18n_registerCleanup_77(i32 noundef 25, ptr noundef nonnull @dayPeriodRulesCleanup_77)
          to label %18 unwind label %26

18:                                               ; preds = %17
  call void @_ZN6icu_7722DayPeriodRulesDataSinkD1Ev(ptr noundef nonnull align 8 dereferenceable(120) %4) #21
  call void @llvm.lifetime.end.p0(i64 120, ptr nonnull %4) #21
  call void @_ZN6icu_7723DayPeriodRulesCountSinkD1Ev(ptr noundef nonnull align 8 dereferenceable(8) %3) #21
  call void @llvm.lifetime.end.p0(i64 8, ptr nonnull %3) #21
  %.not.i = icmp eq ptr %14, null
  br i1 %.not.i, label %_ZN6icu_778internal16LocalOpenPointerI15UResourceBundleXadL_Z13ures_close_77EEED2Ev.exit, label %19

19:                                               ; preds = %18
  invoke void @ures_close_77(ptr noundef nonnull %14)
          to label %_ZN6icu_778internal16LocalOpenPointerI15UResourceBundleXadL_Z13ures_close_77EEED2Ev.exit unwind label %20

20:                                               ; preds = %19
  %21 = landingpad { ptr, i32 }
          catch ptr null
  %22 = extractvalue { ptr, i32 } %21, 0
  call void @__clang_call_terminate(ptr %22) #23
  unreachable

_ZN6icu_778internal16LocalOpenPointerI15UResourceBundleXadL_Z13ures_close_77EEED2Ev.exit: ; preds = %18, %19
  call void @llvm.lifetime.end.p0(i64 8, ptr nonnull %2) #21
  br label %23

23:                                               ; preds = %1, %_ZN6icu_778internal16LocalOpenPointerI15UResourceBundleXadL_Z13ures_close_77EEED2Ev.exit
  ret void

24:                                               ; preds = %11
  %25 = landingpad { ptr, i32 }
          cleanup
  br label %28

26:                                               ; preds = %17, %15
  %27 = landingpad { ptr, i32 }
          cleanup
  call void @_ZN6icu_7722DayPeriodRulesDataSinkD1Ev(ptr noundef nonnull align 8 dereferenceable(120) %4) #21
  call void @llvm.lifetime.end.p0(i64 120, ptr nonnull %4) #21
  br label %28

28:                                               ; preds = %26, %24
  %.pn = phi { ptr, i32 } [ %27, %26 ], [ %25, %24 ]
  call void @_ZN6icu_7723DayPeriodRulesCountSinkD1Ev(ptr noundef nonnull align 8 dereferenceable(8) %3) #21
  call void @llvm.lifetime.end.p0(i64 8, ptr nonnull %3) #21
  call void @_ZN6icu_778internal16LocalOpenPointerI15UResourceBundleXadL_Z13ures_close_77EEED2Ev(ptr noundef nonnull align 8 dereferenceable(8) %2) #21
  call void @llvm.lifetime.end.p0(i64 8, ptr nonnull %2) #21
  resume { ptr, i32 } %.pn
}